; Function Attrs: mustprogress nounwind uwtable
define hidden noundef ptr @_ZN10VectorNode5IdealEP8PhaseGVNb(ptr noundef nonnull align 8 dereferenceable(64) %0, ptr noundef %1, i1 zeroext %2) unnamed_addr #1 align 2 {
  %4 = getelementptr inbounds i8, ptr %0, i64 56
  %5 = load ptr, ptr %4, align 8
  %6 = tail call noundef zeroext i1 @_ZN7Matcher31vector_needs_partial_operationsEP4NodePK8TypeVect(ptr noundef nonnull %0, ptr noundef %5) #8
  br i1 %6, label %7, label %10

7:                                                ; preds = %3
  %8 = load ptr, ptr %4, align 8
  %9 = tail call noundef ptr @_ZN10VectorNode24try_to_gen_masked_vectorEP8PhaseGVNP4NodePK8TypeVect(ptr noundef %1, ptr noundef nonnull %0, ptr noundef %8)
  br label %10

10:                                               ; preds = %3, %7
  %.0 = phi ptr [ %9, %7 ], [ null, %3 ]
  ret ptr %.0
}